#include <math.h>
#include <stdio.h>
#include <stdlib.h>
#include <string.h>

int main()
{
    char s1[1000],s2[1000];

    int i,j,k,l1,n,l2;
    double m;
    scanf("%lf",&m);
    scanf("%s",s1);
    scanf("%s",s2);
    l1=strlen(s1);
    l2=strlen(s2);
   
    if (l1!=l2) printf("error");
    else 
    {   
        n=0;
        for (i=0;i<l1;i++)
        {
          if (((s1[i]!='A')&&(s1[i]!='T')&&(s1[i]!='C')&&(s1[i]!='G'))||((s2[i]!='A')&&(s2[i]!='T')&&(s2[i]!='C')&&(s2[i]!='G')))
          {
             printf("error");
              exit (0);            
             }
          if (s1[i]==s2[i]) n++;
          }
         if (1.0*n/l1>=m) printf("yes");
         else printf("no");
         }                                                                       
         return 0; 
}
